EXPORTS
	_ZN12CPushMtmUtil10FindSiIdLCERK7TDesC16 @ 1 NONAME
	_ZN12CPushMtmUtil10ResetAttrsER9TMsvEntrym @ 2 NONAME
	_ZN12CPushMtmUtil12DeleteEntryLEl @ 3 NONAME
	_ZN12CPushMtmUtil13FindMessagesLE4TUid @ 4 NONAME
	_ZN12CPushMtmUtil13FindMessagesLERK18CMsvEntrySelection4TUid @ 5 NONAME
	_ZN12CPushMtmUtil13FindMessagesLEl4TUidi @ 6 NONAME
	_ZN12CPushMtmUtil16FindPushFoldersLEv @ 7 NONAME
	_ZN12CPushMtmUtil18MarkServiceUnreadLEli @ 8 NONAME
	_ZN12CPushMtmUtil24ConvertUriToDisplayFormLERK7TDesC16 @ 9 NONAME
	_ZN12CPushMtmUtil4NewLER11CMsvSession @ 10 NONAME
	_ZN12CPushMtmUtil5AttrsERK9TMsvEntry @ 11 NONAME
	_ZN12CPushMtmUtil8SetAttrsER9TMsvEntrym @ 12 NONAME
	_ZN12CPushMtmUtil9FindUrlLCERK7TDesC164TUid @ 13 NONAME
	_ZN12CPushMtmUtilD0Ev @ 14 NONAME
	_ZN12CPushMtmUtilD1Ev @ 15 NONAME
	_ZN12CPushMtmUtilD2Ev @ 16 NONAME
	_ZN14CPushInitiator11SetAddressLERK7TDesC16NS_9TAddrTypeE @ 17 NONAME
	_ZN14CPushInitiatorC1Ev @ 18 NONAME
	_ZN14CPushInitiatorC2Ev @ 19 NONAME
	_ZN14CPushInitiatorD0Ev @ 20 NONAME
	_ZN14CPushInitiatorD1Ev @ 21 NONAME
	_ZN14CPushInitiatorD2Ev @ 22 NONAME
	_ZN16CPushMtmSettings19SetServiceReceptionEi @ 23 NONAME
	_ZN16CPushMtmSettings21SetServiceLoadingTypeENS_15TServiceLoadingE @ 24 NONAME
	_ZN16CPushMtmSettings23RestoreFactorySettingsLEv @ 25 NONAME
	_ZN16CPushMtmSettings4NewLEv @ 26 NONAME
	_ZN16CPushMtmSettings5LoadLEv @ 27 NONAME
	_ZN16CPushMtmSettings5NewLCEv @ 28 NONAME
	_ZN16CPushMtmSettings5SaveLEi @ 29 NONAME
	_ZN16CPushMtmSettingsD0Ev @ 30 NONAME
	_ZN16CPushMtmSettingsD1Ev @ 31 NONAME
	_ZN16CPushMtmSettingsD2Ev @ 32 NONAME
	_ZN17CPushMtmOperation14SignalObserverEi @ 33 NONAME
	_ZN17CPushMtmOperation17HandleEntryEventLEN17MMsvEntryObserver14TMsvEntryEventEPvS2_S2_ @ 34 NONAME
	_ZN17CPushMtmOperation18ObserveEntryEventLEv @ 35 NONAME
	_ZN17CPushMtmOperation23CancelObserveEntryEventEv @ 36 NONAME
	_ZN17CPushMtmOperation4RunLEv @ 37 NONAME
	_ZN17CPushMtmOperation6StartLEv @ 38 NONAME
	_ZN17CPushMtmOperation8DoCancelEv @ 39 NONAME
	_ZN17CPushMtmOperation8RunErrorEi @ 40 NONAME
	_ZN17CPushMtmOperation9InvokeRunEv @ 41 NONAME
	_ZN17CPushMtmOperation9ProgressLEv @ 42 NONAME
	_ZN17CPushMtmOperationC1ER11CMsvSessionlR14TRequestStatus @ 43 NONAME
	_ZN17CPushMtmOperationC2ER11CMsvSessionlR14TRequestStatus @ 44 NONAME
	_ZN17CPushMtmOperationD0Ev @ 45 NONAME
	_ZN17CPushMtmOperationD1Ev @ 46 NONAME
	_ZN17CPushMtmOperationD2Ev @ 47 NONAME
	_ZN18CPushAsyncOpRunner10OnStartupLERi @ 48 NONAME
	_ZN18CPushAsyncOpRunner12SetOperationEP13CMsvOperation @ 49 NONAME
	_ZN18CPushAsyncOpRunner13OnRunLActionLERi @ 50 NONAME
	_ZN18CPushAsyncOpRunner15DeleteOperationEv @ 51 NONAME
	_ZN18CPushAsyncOpRunner4RunLEv @ 52 NONAME
	_ZN18CPushAsyncOpRunner6StartLEv @ 53 NONAME
	_ZN18CPushAsyncOpRunner8DoCancelEv @ 54 NONAME
	_ZN18CPushAsyncOpRunner8RunErrorEi @ 55 NONAME
	_ZN18CPushAsyncOpRunner9OperationEv @ 56 NONAME
	_ZN18CPushAsyncOpRunner9ProgressLEv @ 57 NONAME
	_ZN18CPushAsyncOpRunnerC1ER11CMsvSessionlR14TRequestStatus @ 58 NONAME
	_ZN18CPushAsyncOpRunnerC2ER11CMsvSessionlR14TRequestStatus @ 59 NONAME
	_ZN18CPushAsyncOpRunnerD0Ev @ 60 NONAME
	_ZN18CPushAsyncOpRunnerD1Ev @ 61 NONAME
	_ZN18CPushAsyncOpRunnerD2Ev @ 62 NONAME
	_ZN18CPushInitiatorList15ResetAndDestroyEv @ 63 NONAME
	_ZN18CPushInitiatorList4AddLEP14CPushInitiator @ 64 NONAME
	_ZN18CPushInitiatorList4AddLERK14CPushInitiator @ 65 NONAME
	_ZN18CPushInitiatorList4NewLEv @ 66 NONAME
	_ZN18CPushInitiatorList6DeleteEi @ 67 NONAME
	_ZN18CPushInitiatorListD0Ev @ 68 NONAME
	_ZN18CPushInitiatorListD1Ev @ 69 NONAME
	_ZN18CPushInitiatorListD2Ev @ 70 NONAME
	_ZN23TPushAuthenticationUtil16AuthenticateMsgLERK16CPushMtmSettingsRK12CPushMessage @ 71 NONAME
	_ZN23TPushAuthenticationUtil16AuthenticateMsgLERK16CPushMtmSettingsRK17CPushMsgEntryBase @ 72 NONAME
	_ZNK12CPushMtmUtil15ConvertDetailsLERK6TDesC8 @ 73 NONAME
	_ZNK16CPushMtmSettings16ServiceReceptionEv @ 74 NONAME
	_ZNK16CPushMtmSettings17PushInitiatorListEv @ 75 NONAME
	_ZNK16CPushMtmSettings18ServiceLoadingTypeEv @ 76 NONAME
	_ZNK18CPushInitiatorList2AtEi @ 77 NONAME
	_ZNK18CPushInitiatorList4FindERK14CPushInitiatorRi @ 78 NONAME
	_ZNK18CPushInitiatorList5CountEv @ 79 NONAME
	_ZNK18CPushInitiatorListeqERKS_ @ 80 NONAME
	_ZNK18CPushInitiatorListneERKS_ @ 81 NONAME
	_ZTI12CPushMtmUtil @ 82 NONAME ; #<TI>#
	_ZTI14CPushInitiator @ 83 NONAME ; #<TI>#
	_ZTI16CPushMtmSettings @ 84 NONAME ; #<TI>#
	_ZTI17CPushMtmOperation @ 85 NONAME ; #<TI>#
	_ZTI18CPushAsyncOpRunner @ 86 NONAME ; #<TI>#
	_ZTI18CPushInitiatorList @ 87 NONAME ; #<TI>#
	_ZTI19CWhiteListConverter @ 88 NONAME ; #<TI>#
	_ZTV12CPushMtmUtil @ 89 NONAME ; #<VT>#
	_ZTV14CPushInitiator @ 90 NONAME ; #<VT>#
	_ZTV16CPushMtmSettings @ 91 NONAME ; #<VT>#
	_ZTV17CPushMtmOperation @ 92 NONAME ; #<VT>#
	_ZTV18CPushAsyncOpRunner @ 93 NONAME ; #<VT>#
	_ZTV18CPushInitiatorList @ 94 NONAME ; #<VT>#
	_ZTV19CWhiteListConverter @ 95 NONAME ; #<VT>#
	_ZThn48_N17CPushMtmOperation17HandleEntryEventLEN17MMsvEntryObserver14TMsvEntryEventEPvS2_S2_ @ 96 NONAME ; #<thunk>#

