EXPORTS
	??0CPushAsyncOpRunner@@IAE@AAVCMsvSession@@JAAVTRequestStatus@@@Z @ 1 NONAME ; CPushAsyncOpRunner::CPushAsyncOpRunner(class CMsvSession &, long, class TRequestStatus &)
	??0CPushInitiator@@QAE@XZ @ 2 NONAME ; CPushInitiator::CPushInitiator(void)
	??0CPushMtmOperation@@IAE@AAVCMsvSession@@JAAVTRequestStatus@@@Z @ 3 NONAME ; CPushMtmOperation::CPushMtmOperation(class CMsvSession &, long, class TRequestStatus &)
	??1CPushAsyncOpRunner@@MAE@XZ @ 4 NONAME ; CPushAsyncOpRunner::~CPushAsyncOpRunner(void)
	??1CPushInitiator@@UAE@XZ @ 5 NONAME ; CPushInitiator::~CPushInitiator(void)
	??1CPushInitiatorList@@UAE@XZ @ 6 NONAME ; CPushInitiatorList::~CPushInitiatorList(void)
	??1CPushMtmOperation@@UAE@XZ @ 7 NONAME ; CPushMtmOperation::~CPushMtmOperation(void)
	??1CPushMtmSettings@@UAE@XZ @ 8 NONAME ; CPushMtmSettings::~CPushMtmSettings(void)
	??1CPushMtmUtil@@UAE@XZ @ 9 NONAME ; CPushMtmUtil::~CPushMtmUtil(void)
	??8CPushInitiatorList@@QBEHABV0@@Z @ 10 NONAME ; int CPushInitiatorList::operator==(class CPushInitiatorList const &) const
	??9CPushInitiatorList@@QBEHABV0@@Z @ 11 NONAME ; int CPushInitiatorList::operator!=(class CPushInitiatorList const &) const
	?AddL@CPushInitiatorList@@QAEKABVCPushInitiator@@@Z @ 12 NONAME ; unsigned long CPushInitiatorList::AddL(class CPushInitiator const &)
	?AddL@CPushInitiatorList@@QAEKPAVCPushInitiator@@@Z @ 13 NONAME ; unsigned long CPushInitiatorList::AddL(class CPushInitiator *)
	?At@CPushInitiatorList@@QBEAAVCPushInitiator@@H@Z @ 14 NONAME ; class CPushInitiator & CPushInitiatorList::At(int) const
	?Attrs@CPushMtmUtil@@SAKABVTMsvEntry@@@Z @ 15 NONAME ; unsigned long CPushMtmUtil::Attrs(class TMsvEntry const &)
	?AuthenticateMsgL@TPushAuthenticationUtil@@SAHABVCPushMtmSettings@@ABVCPushMessage@@@Z @ 16 NONAME ; int TPushAuthenticationUtil::AuthenticateMsgL(class CPushMtmSettings const &, class CPushMessage const &)
	?AuthenticateMsgL@TPushAuthenticationUtil@@SAHABVCPushMtmSettings@@ABVCPushMsgEntryBase@@@Z @ 17 NONAME ; int TPushAuthenticationUtil::AuthenticateMsgL(class CPushMtmSettings const &, class CPushMsgEntryBase const &)
	?CancelObserveEntryEvent@CPushMtmOperation@@IAEXXZ @ 18 NONAME ; void CPushMtmOperation::CancelObserveEntryEvent(void)
	?ConvertDetailsL@CPushMtmUtil@@QBEPAVHBufC16@@ABVTDesC8@@@Z @ 19 NONAME ; class HBufC16 * CPushMtmUtil::ConvertDetailsL(class TDesC8 const &) const
	?ConvertUriToDisplayFormL@CPushMtmUtil@@SAPAVHBufC16@@ABVTDesC16@@@Z @ 20 NONAME ; class HBufC16 * CPushMtmUtil::ConvertUriToDisplayFormL(class TDesC16 const &)
	?Count@CPushInitiatorList@@QBEHXZ @ 21 NONAME ; int CPushInitiatorList::Count(void) const
	?Delete@CPushInitiatorList@@QAEXH@Z @ 22 NONAME ; void CPushInitiatorList::Delete(int)
	?DeleteEntryL@CPushMtmUtil@@QAEXJ@Z @ 23 NONAME ; void CPushMtmUtil::DeleteEntryL(long)
	?DeleteOperation@CPushAsyncOpRunner@@IAEXXZ @ 24 NONAME ; void CPushAsyncOpRunner::DeleteOperation(void)
	?DoCancel@CPushAsyncOpRunner@@MAEXXZ @ 25 NONAME ; void CPushAsyncOpRunner::DoCancel(void)
	?DoCancel@CPushMtmOperation@@MAEXXZ @ 26 NONAME ; void CPushMtmOperation::DoCancel(void)
	?Find@CPushInitiatorList@@QBEHABVCPushInitiator@@AAH@Z @ 27 NONAME ; int CPushInitiatorList::Find(class CPushInitiator const &, int &) const
	?FindMessagesL@CPushMtmUtil@@QAEPAVCMsvEntrySelection@@ABV2@VTUid@@@Z @ 28 NONAME ; class CMsvEntrySelection * CPushMtmUtil::FindMessagesL(class CMsvEntrySelection const &, class TUid)
	?FindMessagesL@CPushMtmUtil@@QAEPAVCMsvEntrySelection@@JVTUid@@H@Z @ 29 NONAME ; class CMsvEntrySelection * CPushMtmUtil::FindMessagesL(long, class TUid, int)
	?FindMessagesL@CPushMtmUtil@@QAEPAVCMsvEntrySelection@@VTUid@@@Z @ 30 NONAME ; class CMsvEntrySelection * CPushMtmUtil::FindMessagesL(class TUid)
	?FindPushFoldersL@CPushMtmUtil@@QAEPAVCMsvEntrySelection@@XZ @ 31 NONAME ; class CMsvEntrySelection * CPushMtmUtil::FindPushFoldersL(void)
	?FindSiIdLC@CPushMtmUtil@@QAEPAVCMsvEntrySelection@@ABVTDesC16@@@Z @ 32 NONAME ; class CMsvEntrySelection * CPushMtmUtil::FindSiIdLC(class TDesC16 const &)
	?FindUrlLC@CPushMtmUtil@@QAEPAVCMsvEntrySelection@@ABVTDesC16@@VTUid@@@Z @ 33 NONAME ; class CMsvEntrySelection * CPushMtmUtil::FindUrlLC(class TDesC16 const &, class TUid)
	?HandleEntryEventL@CPushMtmOperation@@MAEXW4TMsvEntryEvent@MMsvEntryObserver@@PAX11@Z @ 34 NONAME ; void CPushMtmOperation::HandleEntryEventL(enum MMsvEntryObserver::TMsvEntryEvent, void *, void *, void *)
	?InvokeRun@CPushMtmOperation@@IAEXXZ @ 35 NONAME ; void CPushMtmOperation::InvokeRun(void)
	?LoadL@CPushMtmSettings@@QAEXXZ @ 36 NONAME ; void CPushMtmSettings::LoadL(void)
	?MarkServiceUnreadL@CPushMtmUtil@@QAEXJH@Z @ 37 NONAME ; void CPushMtmUtil::MarkServiceUnreadL(long, int)
	?NewL@CPushInitiatorList@@SAPAV1@XZ @ 38 NONAME ; class CPushInitiatorList * CPushInitiatorList::NewL(void)
	?NewL@CPushMtmSettings@@SAPAV1@XZ @ 39 NONAME ; class CPushMtmSettings * CPushMtmSettings::NewL(void)
	?NewL@CPushMtmUtil@@SAPAV1@AAVCMsvSession@@@Z @ 40 NONAME ; class CPushMtmUtil * CPushMtmUtil::NewL(class CMsvSession &)
	?NewLC@CPushMtmSettings@@SAPAV1@XZ @ 41 NONAME ; class CPushMtmSettings * CPushMtmSettings::NewLC(void)
	?ObserveEntryEventL@CPushMtmOperation@@IAEXXZ @ 42 NONAME ; void CPushMtmOperation::ObserveEntryEventL(void)
	?OnRunLActionL@CPushAsyncOpRunner@@MAEHAAH@Z @ 43 NONAME ; int CPushAsyncOpRunner::OnRunLActionL(int &)
	?OnStartupL@CPushAsyncOpRunner@@MAEHAAH@Z @ 44 NONAME ; int CPushAsyncOpRunner::OnStartupL(int &)
	?Operation@CPushAsyncOpRunner@@IAEAAVCMsvOperation@@XZ @ 45 NONAME ; class CMsvOperation & CPushAsyncOpRunner::Operation(void)
	?ProgressL@CPushAsyncOpRunner@@UAEABVTDesC8@@XZ @ 46 NONAME ; class TDesC8 const & CPushAsyncOpRunner::ProgressL(void)
	?ProgressL@CPushMtmOperation@@UAEABVTDesC8@@XZ @ 47 NONAME ; class TDesC8 const & CPushMtmOperation::ProgressL(void)
	?PushInitiatorList@CPushMtmSettings@@QBEAAVCPushInitiatorList@@XZ @ 48 NONAME ; class CPushInitiatorList & CPushMtmSettings::PushInitiatorList(void) const
	?ResetAndDestroy@CPushInitiatorList@@QAEXXZ @ 49 NONAME ; void CPushInitiatorList::ResetAndDestroy(void)
	?ResetAttrs@CPushMtmUtil@@SAXAAVTMsvEntry@@K@Z @ 50 NONAME ; void CPushMtmUtil::ResetAttrs(class TMsvEntry &, unsigned long)
	?RestoreFactorySettingsL@CPushMtmSettings@@QAEXXZ @ 51 NONAME ; void CPushMtmSettings::RestoreFactorySettingsL(void)
	?RunError@CPushAsyncOpRunner@@MAEHH@Z @ 52 NONAME ; int CPushAsyncOpRunner::RunError(int)
	?RunError@CPushMtmOperation@@MAEHH@Z @ 53 NONAME ; int CPushMtmOperation::RunError(int)
	?RunL@CPushAsyncOpRunner@@MAEXXZ @ 54 NONAME ; void CPushAsyncOpRunner::RunL(void)
	?RunL@CPushMtmOperation@@MAEXXZ @ 55 NONAME ; void CPushMtmOperation::RunL(void)
	?SaveL@CPushMtmSettings@@QAEXH@Z @ 56 NONAME ; void CPushMtmSettings::SaveL(int)
	?ServiceLoadingType@CPushMtmSettings@@QBE?AW4TServiceLoading@1@XZ @ 57 NONAME ; enum CPushMtmSettings::TServiceLoading CPushMtmSettings::ServiceLoadingType(void) const
	?ServiceReception@CPushMtmSettings@@QBEHXZ @ 58 NONAME ; int CPushMtmSettings::ServiceReception(void) const
	?SetAddressL@CPushInitiator@@QAEXABVTDesC16@@W4TAddrType@1@@Z @ 59 NONAME ; void CPushInitiator::SetAddressL(class TDesC16 const &, enum CPushInitiator::TAddrType)
	?SetAttrs@CPushMtmUtil@@SAXAAVTMsvEntry@@K@Z @ 60 NONAME ; void CPushMtmUtil::SetAttrs(class TMsvEntry &, unsigned long)
	?SetOperation@CPushAsyncOpRunner@@IAEXPAVCMsvOperation@@@Z @ 61 NONAME ; void CPushAsyncOpRunner::SetOperation(class CMsvOperation *)
	?SetServiceLoadingType@CPushMtmSettings@@QAEXW4TServiceLoading@1@@Z @ 62 NONAME ; void CPushMtmSettings::SetServiceLoadingType(enum CPushMtmSettings::TServiceLoading)
	?SetServiceReception@CPushMtmSettings@@QAEXH@Z @ 63 NONAME ; void CPushMtmSettings::SetServiceReception(int)
	?SignalObserver@CPushMtmOperation@@IAEXH@Z @ 64 NONAME ; void CPushMtmOperation::SignalObserver(int)
	?StartL@CPushAsyncOpRunner@@UAEXXZ @ 65 NONAME ; void CPushAsyncOpRunner::StartL(void)
	?StartL@CPushMtmOperation@@UAEXXZ @ 66 NONAME ; void CPushMtmOperation::StartL(void)

